target datalayout = "e-m:e-p270:32:32-p271:32:32-p272:64:64-i64:64-i128:128-f80:128-n8:16:32:64-S128"
target triple = "x86_64-unknown-linux-gnu"

%"struct.eastl::mod_range_hashing" = type { i8 }
%"struct.eastl::prime_rehash_policy" = type { float, float, i32 }
%"class.eastl::allocator" = type { i8 }
%"struct.eastl::hash_code_base.271" = type { %"struct.eastl::use_first.272", %struct.name_equals, %"struct.eastl::hash.273", %"struct.eastl::mod_range_hashing" }
%"struct.eastl::use_first.272" = type { i8 }
%struct.name_equals = type { i8 }
%"struct.eastl::hash.273" = type { i8 }
%"struct.eastl::pair.276" = type { i32, ptr }
%"struct.eastl::pair.309" = type <{ %"struct.eastl::pair.276", i8, [7 x i8] }>
%"class.eastl::hashtable.269" = type <{ %"struct.eastl::hash_code_base.271", [4 x i8], ptr, i64, i64, %"struct.eastl::prime_rehash_policy", %"class.eastl::allocator", [3 x i8] }>
%"struct.eastl::hash_node.308" = type { %"struct.eastl::pair.309", ptr }

; Function Attrs: mustprogress nounwind uwtable
define internal void @_ZN5eastl9hashtableINS_4pairIiPKcEENS1_IKS4_bEENS_9allocatorENS_9use_firstIS6_EEZ8TestHashvE11name_equalsNS_4hashIS4_EENS_17mod_range_hashingENS_19default_ranged_hashENS_19prime_rehash_policyELb0ELb1ELb1EE10DoFreeNodeEPNS_9hash_nodeIS6_Lb0EEE(ptr noundef nonnull align 8 dereferenceable(45) %this, ptr noundef %pNode) #0 align 2 {
entry:
  %this.addr = alloca ptr, align 8
  %pNode.addr = alloca ptr, align 8
  store ptr %this, ptr %this.addr, align 8
  store ptr %pNode, ptr %pNode.addr, align 8
  %this1 = load ptr, ptr %this.addr, align 8
  %mAllocator = getelementptr inbounds %"class.eastl::hashtable.269", ptr %this1, i32 0, i32 6
  %0 = load ptr, ptr %pNode.addr, align 8
  call void @_ZN5eastl9allocator10deallocateEPvm(ptr noundef nonnull align 1 dereferenceable(1) %mAllocator, ptr noundef %0, i64 noundef 32)
  ret void
}

; Function Attrs: mustprogress nounwind uwtable
define linkonce_odr dso_local void @_ZN5eastl9allocator10deallocateEPvm(ptr noundef nonnull align 1 dereferenceable(1) %this, ptr noundef %p, i64 noundef %0) #0 comdat align 2 {
entry:
  %this.addr = alloca ptr, align 8
  %p.addr = alloca ptr, align 8
  %.addr = alloca i64, align 8
  store ptr %this, ptr %this.addr, align 8
  store ptr %p, ptr %p.addr, align 8
  store i64 %0, ptr %.addr, align 8
  %1 = load ptr, ptr %p.addr, align 8
  %isnull = icmp eq ptr %1, null
  br i1 %isnull, label %delete.end, label %delete.notnull

delete.notnull:                                   ; preds = %entry
  call void @_ZdaPv(ptr noundef %1) #15
  br label %delete.end

delete.end:                                       ; preds = %delete.notnull, %entry
  ret void
}

; Function Attrs: mustprogress uwtable
define internal void @_ZN5eastl9hashtableINS_4pairIiPKcEENS1_IKS4_bEENS_9allocatorENS_9use_firstIS6_EEZ8TestHashvE11name_equalsNS_4hashIS4_EENS_17mod_range_hashingENS_19default_ranged_hashENS_19prime_rehash_policyELb0ELb1ELb1EE11DoFreeNodesEPPNS_9hash_nodeIS6_Lb0EEEm(ptr noundef nonnull align 8 dereferenceable(45) %this, ptr noundef %pNodeArray, i64 noundef %n) #1 align 2 {
entry:
  %this.addr = alloca ptr, align 8
  %pNodeArray.addr = alloca ptr, align 8
  %n.addr = alloca i64, align 8
  %i = alloca i64, align 8
  %pNode = alloca ptr, align 8
  %pTempNode = alloca ptr, align 8
  store ptr %this, ptr %this.addr, align 8
  store ptr %pNodeArray, ptr %pNodeArray.addr, align 8
  store i64 %n, ptr %n.addr, align 8
  %this1 = load ptr, ptr %this.addr, align 8
  store i64 0, ptr %i, align 8
  br label %for.cond

for.cond:                                         ; preds = %for.inc, %entry
  %0 = load i64, ptr %i, align 8
  %1 = load i64, ptr %n.addr, align 8
  %cmp = icmp ult i64 %0, %1
  br i1 %cmp, label %for.body, label %for.end

for.body:                                         ; preds = %for.cond
  %2 = load ptr, ptr %pNodeArray.addr, align 8
  %3 = load i64, ptr %i, align 8
  %arrayidx = getelementptr inbounds ptr, ptr %2, i64 %3
  %4 = load ptr, ptr %arrayidx, align 8
  store ptr %4, ptr %pNode, align 8
  br label %while.cond

while.cond:                                       ; preds = %while.body, %for.body
  %5 = load ptr, ptr %pNode, align 8
  %tobool = icmp ne ptr %5, null
  br i1 %tobool, label %while.body, label %while.end

while.body:                                       ; preds = %while.cond
  %6 = load ptr, ptr %pNode, align 8
  store ptr %6, ptr %pTempNode, align 8
  %7 = load ptr, ptr %pNode, align 8
  %mpNext = getelementptr inbounds %"struct.eastl::hash_node.308", ptr %7, i32 0, i32 1
  %8 = load ptr, ptr %mpNext, align 8
  store ptr %8, ptr %pNode, align 8
  %9 = load ptr, ptr %pTempNode, align 8
  call void @_ZN5eastl9hashtableINS_4pairIiPKcEENS1_IKS4_bEENS_9allocatorENS_9use_firstIS6_EEZ8TestHashvE11name_equalsNS_4hashIS4_EENS_17mod_range_hashingENS_19default_ranged_hashENS_19prime_rehash_policyELb0ELb1ELb1EE10DoFreeNodeEPNS_9hash_nodeIS6_Lb0EEE(ptr noundef nonnull align 8 dereferenceable(45) %this1, ptr noundef %9)
  br label %while.cond, !llvm.loop !180

while.end:                                        ; preds = %while.cond
  %10 = load ptr, ptr %pNodeArray.addr, align 8
  %11 = load i64, ptr %i, align 8
  %arrayidx2 = getelementptr inbounds ptr, ptr %10, i64 %11
  store ptr null, ptr %arrayidx2, align 8
  br label %for.inc

for.inc:                                          ; preds = %while.end
  %12 = load i64, ptr %i, align 8
  %inc = add i64 %12, 1
  store i64 %inc, ptr %i, align 8
  br label %for.cond, !llvm.loop !181

for.end:                                          ; preds = %for.cond
  ret void
}

; Function Attrs: noreturn nounwind uwtable
define linkonce_odr hidden void @__clang_call_terminate(ptr noundef %0) #4 comdat {
  %2 = call ptr @__cxa_begin_catch(ptr %0) #13
  call void @_ZSt9terminatev() #14
  unreachable
}

; Function Attrs: mustprogress nounwind uwtable
define internal void @_ZN5eastl9hashtableINS_4pairIiPKcEENS1_IKS4_bEENS_9allocatorENS_9use_firstIS6_EEZ8TestHashvE11name_equalsNS_4hashIS4_EENS_17mod_range_hashingENS_19default_ranged_hashENS_19prime_rehash_policyELb0ELb1ELb1EE13DoFreeBucketsEPPNS_9hash_nodeIS6_Lb0EEEm(ptr noundef nonnull align 8 dereferenceable(45) %this, ptr noundef %pBucketArray, i64 noundef %n) #0 align 2 {
entry:
  %this.addr = alloca ptr, align 8
  %pBucketArray.addr = alloca ptr, align 8
  %n.addr = alloca i64, align 8
  store ptr %this, ptr %this.addr, align 8
  store ptr %pBucketArray, ptr %pBucketArray.addr, align 8
  store i64 %n, ptr %n.addr, align 8
  %this1 = load ptr, ptr %this.addr, align 8
  %0 = load i64, ptr %n.addr, align 8
  %cmp = icmp ugt i64 %0, 1
  br i1 %cmp, label %if.then, label %if.end

if.then:                                          ; preds = %entry
  %mAllocator = getelementptr inbounds %"class.eastl::hashtable.269", ptr %this1, i32 0, i32 6
  %1 = load ptr, ptr %pBucketArray.addr, align 8
  %2 = load i64, ptr %n.addr, align 8
  %add = add i64 %2, 1
  %mul = mul i64 %add, 8
  call void @_ZN5eastl9allocator10deallocateEPvm(ptr noundef nonnull align 1 dereferenceable(1) %mAllocator, ptr noundef %1, i64 noundef %mul)
  br label %if.end

if.end:                                           ; preds = %if.then, %entry
  ret void
}

; Function Attrs: mustprogress uwtable
define internal void @_ZN5eastl9hashtableINS_4pairIiPKcEENS1_IKS4_bEENS_9allocatorENS_9use_firstIS6_EEZ8TestHashvE11name_equalsNS_4hashIS4_EENS_17mod_range_hashingENS_19default_ranged_hashENS_19prime_rehash_policyELb0ELb1ELb1EE5clearEv(ptr noundef nonnull align 8 dereferenceable(45) %this) #1 align 2 {
entry:
  %this.addr = alloca ptr, align 8
  store ptr %this, ptr %this.addr, align 8
  %this1 = load ptr, ptr %this.addr, align 8
  %mpBucketArray = getelementptr inbounds %"class.eastl::hashtable.269", ptr %this1, i32 0, i32 2
  %0 = load ptr, ptr %mpBucketArray, align 8
  %mnBucketCount = getelementptr inbounds %"class.eastl::hashtable.269", ptr %this1, i32 0, i32 3
  %1 = load i64, ptr %mnBucketCount, align 8
  call void @_ZN5eastl9hashtableINS_4pairIiPKcEENS1_IKS4_bEENS_9allocatorENS_9use_firstIS6_EEZ8TestHashvE11name_equalsNS_4hashIS4_EENS_17mod_range_hashingENS_19default_ranged_hashENS_19prime_rehash_policyELb0ELb1ELb1EE11DoFreeNodesEPPNS_9hash_nodeIS6_Lb0EEEm(ptr noundef nonnull align 8 dereferenceable(45) %this1, ptr noundef %0, i64 noundef %1)
  %mnElementCount = getelementptr inbounds %"class.eastl::hashtable.269", ptr %this1, i32 0, i32 4
  store i64 0, ptr %mnElementCount, align 8
  ret void
}

; Function Attrs: mustprogress nounwind uwtable
define internal void @_ZN5eastl9hashtableINS_4pairIiPKcEENS1_IKS4_bEENS_9allocatorENS_9use_firstIS6_EEZ8TestHashvE11name_equalsNS_4hashIS4_EENS_17mod_range_hashingENS_19default_ranged_hashENS_19prime_rehash_policyELb0ELb1ELb1EED2Ev(ptr noundef nonnull align 8 dereferenceable(45) %this) unnamed_addr #0 align 2 personality ptr @__gxx_personality_v0 {
entry:
  %this.addr = alloca ptr, align 8
  store ptr %this, ptr %this.addr, align 8
  %this1 = load ptr, ptr %this.addr, align 8
  invoke void @_ZN5eastl9hashtableINS_4pairIiPKcEENS1_IKS4_bEENS_9allocatorENS_9use_firstIS6_EEZ8TestHashvE11name_equalsNS_4hashIS4_EENS_17mod_range_hashingENS_19default_ranged_hashENS_19prime_rehash_policyELb0ELb1ELb1EE5clearEv(ptr noundef nonnull align 8 dereferenceable(45) %this1)
          to label %invoke.cont unwind label %terminate.lpad

invoke.cont:                                      ; preds = %entry
  %mpBucketArray = getelementptr inbounds %"class.eastl::hashtable.269", ptr %this1, i32 0, i32 2
  %0 = load ptr, ptr %mpBucketArray, align 8
  %mnBucketCount = getelementptr inbounds %"class.eastl::hashtable.269", ptr %this1, i32 0, i32 3
  %1 = load i64, ptr %mnBucketCount, align 8
  invoke void @_ZN5eastl9hashtableINS_4pairIiPKcEENS1_IKS4_bEENS_9allocatorENS_9use_firstIS6_EEZ8TestHashvE11name_equalsNS_4hashIS4_EENS_17mod_range_hashingENS_19default_ranged_hashENS_19prime_rehash_policyELb0ELb1ELb1EE13DoFreeBucketsEPPNS_9hash_nodeIS6_Lb0EEEm(ptr noundef nonnull align 8 dereferenceable(45) %this1, ptr noundef %0, i64 noundef %1)
          to label %invoke.cont2 unwind label %terminate.lpad

invoke.cont2:                                     ; preds = %invoke.cont
  ret void

terminate.lpad:                                   ; preds = %invoke.cont, %entry
  %2 = landingpad { ptr, i32 }
          catch ptr null
  %3 = extractvalue { ptr, i32 } %2, 0
  call void @__clang_call_terminate(ptr %3) #14
  unreachable
}

; Function Attrs: mustprogress nounwind uwtable
define internal void @_ZN5eastl8hash_mapINS_4pairIiPKcEEbNS_4hashIS4_EEZ8TestHashvE11name_equalsNS_9allocatorELb0EED2Ev(ptr noundef nonnull align 8 dereferenceable(45) %this) unnamed_addr #0 align 2 {
entry:
  %this.addr = alloca ptr, align 8
  store ptr %this, ptr %this.addr, align 8
  %this1 = load ptr, ptr %this.addr, align 8
  call void @_ZN5eastl9hashtableINS_4pairIiPKcEENS1_IKS4_bEENS_9allocatorENS_9use_firstIS6_EEZ8TestHashvE11name_equalsNS_4hashIS4_EENS_17mod_range_hashingENS_19default_ranged_hashENS_19prime_rehash_policyELb0ELb1ELb1EED2Ev(ptr noundef nonnull align 8 dereferenceable(45) %this1) #13
  ret void
}